target datalayout = "e-m:e-p270:32:32-p271:32:32-p272:64:64-i64:64-i128:128-f80:128-n8:16:32:64-S128"
target triple = "x86_64-pc-linux-gnu"

; Function Attrs: nounwind uwtable
define internal ptr @uriParseQueryFragA(ptr noundef %0, ptr noundef %1, ptr noundef %2, ptr noundef %3) #0 {
  %5 = alloca ptr, align 8
  %6 = alloca ptr, align 8
  %7 = alloca ptr, align 8
  %8 = alloca ptr, align 8
  %9 = alloca ptr, align 8
  %10 = alloca ptr, align 8
  %11 = alloca i32, align 4
  store ptr %0, ptr %6, align 8, !tbaa !3
  store ptr %1, ptr %7, align 8, !tbaa !8
  store ptr %2, ptr %8, align 8, !tbaa !8
  store ptr %3, ptr %9, align 8, !tbaa !10
  %12 = load ptr, ptr %7, align 8, !tbaa !8
  %13 = load ptr, ptr %8, align 8, !tbaa !8
  %14 = icmp uge ptr %12, %13
  br i1 %14, label %15, label %17

15:                                               ; preds = %4
  %16 = load ptr, ptr %8, align 8, !tbaa !8
  store ptr %16, ptr %5, align 8
  br label %46

17:                                               ; preds = %4
  %18 = load ptr, ptr %7, align 8, !tbaa !8
  %19 = load i8, ptr %18, align 1, !tbaa !57
  %20 = sext i8 %19 to i32
  switch i32 %20, label %44 [
    i32 33, label %21
    i32 36, label %21
    i32 37, label %21
    i32 38, label %21
    i32 40, label %21
    i32 41, label %21
    i32 45, label %21
    i32 42, label %21
    i32 44, label %21
    i32 46, label %21
    i32 58, label %21
    i32 59, label %21
    i32 64, label %21
    i32 39, label %21
    i32 95, label %21
    i32 126, label %21
    i32 43, label %21
    i32 61, label %21
    i32 48, label %21
    i32 49, label %21
    i32 50, label %21
    i32 51, label %21
    i32 52, label %21
    i32 53, label %21
    i32 54, label %21
    i32 55, label %21
    i32 56, label %21
    i32 57, label %21
    i32 65, label %21
    i32 66, label %21
    i32 67, label %21
    i32 68, label %21
    i32 69, label %21
    i32 70, label %21
    i32 97, label %21
    i32 98, label %21
    i32 99, label %21
    i32 100, label %21
    i32 101, label %21
    i32 102, label %21
    i32 103, label %21
    i32 71, label %21
    i32 104, label %21
    i32 72, label %21
    i32 105, label %21
    i32 73, label %21
    i32 106, label %21
    i32 74, label %21
    i32 107, label %21
    i32 75, label %21
    i32 108, label %21
    i32 76, label %21
    i32 109, label %21
    i32 77, label %21
    i32 110, label %21
    i32 78, label %21
    i32 111, label %21
    i32 79, label %21
    i32 112, label %21
    i32 80, label %21
    i32 113, label %21
    i32 81, label %21
    i32 114, label %21
    i32 82, label %21
    i32 115, label %21
    i32 83, label %21
    i32 116, label %21
    i32 84, label %21
    i32 117, label %21
    i32 85, label %21
    i32 118, label %21
    i32 86, label %21
    i32 119, label %21
    i32 87, label %21
    i32 120, label %21
    i32 88, label %21
    i32 121, label %21
    i32 89, label %21
    i32 122, label %21
    i32 90, label %21
    i32 47, label %37
    i32 63, label %37
  ]

21:                                               ; preds = %17, %17, %17, %17, %17, %17, %17, %17, %17, %17, %17, %17, %17, %17, %17, %17, %17, %17, %17, %17, %17, %17, %17, %17, %17, %17, %17, %17, %17, %17, %17, %17, %17, %17, %17, %17, %17, %17, %17, %17, %17, %17, %17, %17, %17, %17, %17, %17, %17, %17, %17, %17, %17, %17, %17, %17, %17, %17, %17, %17, %17, %17, %17, %17, %17, %17, %17, %17, %17, %17, %17, %17, %17, %17, %17, %17, %17, %17, %17, %17
  call void @llvm.lifetime.start.p0(i64 8, ptr %10) #7
  %22 = load ptr, ptr %6, align 8, !tbaa !3
  %23 = load ptr, ptr %7, align 8, !tbaa !8
  %24 = load ptr, ptr %8, align 8, !tbaa !8
  %25 = load ptr, ptr %9, align 8, !tbaa !10
  %26 = call ptr @uriParsePcharA(ptr noundef %22, ptr noundef %23, ptr noundef %24, ptr noundef %25)
  store ptr %26, ptr %10, align 8, !tbaa !8
  %27 = load ptr, ptr %10, align 8, !tbaa !8
  %28 = icmp eq ptr %27, null
  br i1 %28, label %29, label %30

29:                                               ; preds = %21
  store ptr null, ptr %5, align 8
  store i32 1, ptr %11, align 4
  br label %36

30:                                               ; preds = %21
  %31 = load ptr, ptr %6, align 8, !tbaa !3
  %32 = load ptr, ptr %10, align 8, !tbaa !8
  %33 = load ptr, ptr %8, align 8, !tbaa !8
  %34 = load ptr, ptr %9, align 8, !tbaa !10
  %35 = call ptr @uriParseQueryFragA(ptr noundef %31, ptr noundef %32, ptr noundef %33, ptr noundef %34)
  store ptr %35, ptr %5, align 8
  store i32 1, ptr %11, align 4
  br label %36

36:                                               ; preds = %30, %29
  call void @llvm.lifetime.end.p0(i64 8, ptr %10) #7
  br label %46

37:                                               ; preds = %17, %17
  %38 = load ptr, ptr %6, align 8, !tbaa !3
  %39 = load ptr, ptr %7, align 8, !tbaa !8
  %40 = getelementptr inbounds i8, ptr %39, i64 1
  %41 = load ptr, ptr %8, align 8, !tbaa !8
  %42 = load ptr, ptr %9, align 8, !tbaa !10
  %43 = call ptr @uriParseQueryFragA(ptr noundef %38, ptr noundef %40, ptr noundef %41, ptr noundef %42)
  store ptr %43, ptr %5, align 8
  br label %46

44:                                               ; preds = %17
  %45 = load ptr, ptr %7, align 8, !tbaa !8
  store ptr %45, ptr %5, align 8
  br label %46

46:                                               ; preds = %44, %37, %36, %15
  %47 = load ptr, ptr %5, align 8
  ret ptr %47
}