; Function Attrs: nounwind uwtable
define internal fastcc noundef ptr @uriParseQueryFragA(ptr noundef nonnull captures(none) %0, ptr noundef nonnull %1, ptr noundef nonnull %2, ptr noundef %3) unnamed_addr #0 {
  %.not26 = icmp ult ptr %1, %2
  br i1 %.not26, label %.lr.ph, label %._crit_edge

.lr.ph:                                           ; preds = %4, %tailrecurse.backedge
  %.tr2327 = phi ptr [ %.tr23.be, %tailrecurse.backedge ], [ %1, %4 ]
  %5 = load i8, ptr %.tr2327, align 1, !tbaa !11
  switch i8 %5, label %._crit_edge [
    i8 33, label %6
    i8 36, label %6
    i8 37, label %6
    i8 38, label %6
    i8 40, label %6
    i8 41, label %6
    i8 45, label %6
    i8 42, label %6
    i8 44, label %6
    i8 46, label %6
    i8 58, label %6
    i8 59, label %6
    i8 64, label %6
    i8 39, label %6
    i8 95, label %6
    i8 126, label %6
    i8 43, label %6
    i8 61, label %6
    i8 48, label %6
    i8 49, label %6
    i8 50, label %6
    i8 51, label %6
    i8 52, label %6
    i8 53, label %6
    i8 54, label %6
    i8 55, label %6
    i8 56, label %6
    i8 57, label %6
    i8 65, label %6
    i8 66, label %6
    i8 67, label %6
    i8 68, label %6
    i8 69, label %6
    i8 70, label %6
    i8 97, label %6
    i8 98, label %6
    i8 99, label %6
    i8 100, label %6
    i8 101, label %6
    i8 102, label %6
    i8 103, label %6
    i8 71, label %6
    i8 104, label %6
    i8 72, label %6
    i8 105, label %6
    i8 73, label %6
    i8 106, label %6
    i8 74, label %6
    i8 107, label %6
    i8 75, label %6
    i8 108, label %6
    i8 76, label %6
    i8 109, label %6
    i8 77, label %6
    i8 110, label %6
    i8 78, label %6
    i8 111, label %6
    i8 79, label %6
    i8 112, label %6
    i8 80, label %6
    i8 113, label %6
    i8 81, label %6
    i8 114, label %6
    i8 82, label %6
    i8 115, label %6
    i8 83, label %6
    i8 116, label %6
    i8 84, label %6
    i8 117, label %6
    i8 85, label %6
    i8 118, label %6
    i8 86, label %6
    i8 119, label %6
    i8 87, label %6
    i8 120, label %6
    i8 88, label %6
    i8 121, label %6
    i8 89, label %6
    i8 122, label %6
    i8 90, label %6
    i8 47, label %9
    i8 63, label %9
  ]

6:                                                ; preds = %.lr.ph, %.lr.ph, %.lr.ph, %.lr.ph, %.lr.ph, %.lr.ph, %.lr.ph, %.lr.ph, %.lr.ph, %.lr.ph, %.lr.ph, %.lr.ph, %.lr.ph, %.lr.ph, %.lr.ph, %.lr.ph, %.lr.ph, %.lr.ph, %.lr.ph, %.lr.ph, %.lr.ph, %.lr.ph, %.lr.ph, %.lr.ph, %.lr.ph, %.lr.ph, %.lr.ph, %.lr.ph, %.lr.ph, %.lr.ph, %.lr.ph, %.lr.ph, %.lr.ph, %.lr.ph, %.lr.ph, %.lr.ph, %.lr.ph, %.lr.ph, %.lr.ph, %.lr.ph, %.lr.ph, %.lr.ph, %.lr.ph, %.lr.ph, %.lr.ph, %.lr.ph, %.lr.ph, %.lr.ph, %.lr.ph, %.lr.ph, %.lr.ph, %.lr.ph, %.lr.ph, %.lr.ph, %.lr.ph, %.lr.ph, %.lr.ph, %.lr.ph, %.lr.ph, %.lr.ph, %.lr.ph, %.lr.ph, %.lr.ph, %.lr.ph, %.lr.ph, %.lr.ph, %.lr.ph, %.lr.ph, %.lr.ph, %.lr.ph, %.lr.ph, %.lr.ph, %.lr.ph, %.lr.ph, %.lr.ph, %.lr.ph, %.lr.ph, %.lr.ph, %.lr.ph, %.lr.ph
  %7 = tail call fastcc ptr @uriParsePcharA(ptr noundef %0, ptr noundef %.tr2327, ptr noundef %2, ptr noundef %3)
  %8 = icmp eq ptr %7, null
  br i1 %8, label %._crit_edge, label %tailrecurse.backedge

9:                                                ; preds = %.lr.ph, %.lr.ph
  %10 = getelementptr inbounds nuw i8, ptr %.tr2327, i64 1
  br label %tailrecurse.backedge

tailrecurse.backedge:                             ; preds = %9, %6
  %.tr23.be = phi ptr [ %10, %9 ], [ %7, %6 ]
  %.not = icmp ult ptr %.tr23.be, %2
  br i1 %.not, label %.lr.ph, label %._crit_edge

._crit_edge:                                      ; preds = %tailrecurse.backedge, %6, %.lr.ph, %4
  %.0 = phi ptr [ %2, %4 ], [ %.tr2327, %.lr.ph ], [ null, %6 ], [ %2, %tailrecurse.backedge ]
  ret ptr %.0
}